; Function Attrs: nounwind uwtable
define hidden zeroext i1 @SDL_BlitSurfaceUnchecked_REAL(ptr noundef %0, ptr noundef %1, ptr noundef %2, ptr noundef %3) local_unnamed_addr #2 {
  %5 = tail call zeroext i1 @SDL_ValidateMap(ptr noundef %0, ptr noundef %2) #10
  br i1 %5, label %6, label %10

6:                                                ; preds = %4
  %7 = getelementptr inbounds nuw i8, ptr %0, i64 128
  %8 = load ptr, ptr %7, align 8
  %9 = tail call zeroext i1 %8(ptr noundef %0, ptr noundef %1, ptr noundef %2, ptr noundef %3) #10
  br label %10

10:                                               ; preds = %4, %6
  %.0 = phi i1 [ %9, %6 ], [ false, %4 ]
  ret i1 %.0
}